; Function Attrs: nounwind uwtable
define internal fastcc range(i32 0, 2) i32 @setup_tbuf(ptr noundef captures(none) %0, ptr noundef readonly captures(none) %1) unnamed_addr #1 {
  %3 = getelementptr inbounds nuw i8, ptr %0, i64 56
  %4 = load ptr, ptr %3, align 8, !tbaa !37
  %.not = icmp eq ptr %4, null
  br i1 %.not, label %5, label %13

5:                                                ; preds = %2
  %6 = getelementptr inbounds nuw i8, ptr %1, i64 136
  %7 = load ptr, ptr %6, align 8, !tbaa !51
  %8 = tail call ptr @EVP_PKEY_get0_RSA(ptr noundef %7) #9
  %9 = tail call i32 @RSA_size(ptr noundef %8) #9
  %10 = sext i32 %9 to i64
  %11 = tail call noalias ptr @CRYPTO_malloc(i64 noundef %10, ptr noundef nonnull @.str, i32 noundef 119) #9
  store ptr %11, ptr %3, align 8, !tbaa !37
  %12 = icmp ne ptr %11, null
  %. = zext i1 %12 to i32
  br label %13

13:                                               ; preds = %5, %2
  %.0 = phi i32 [ 1, %2 ], [ %., %5 ]
  ret i32 %.0
}